target datalayout = "e-m:e-p270:32:32-p271:32:32-p272:64:64-i64:64-i128:128-f80:128-n8:16:32:64-S128"
target triple = "x86_64-pc-linux-gnu"

%"class.std::__1::basic_string" = type { %"class.std::__1::__compressed_pair.2" }
%"class.std::__1::__compressed_pair.2" = type { %"struct.std::__1::__compressed_pair_elem.3" }
%"struct.std::__1::__compressed_pair_elem.3" = type { %"struct.std::__1::basic_string<char>::__rep" }
%"struct.std::__1::basic_string<char>::__rep" = type { %union.anon }
%union.anon = type { %"struct.std::__1::basic_string<char>::__long" }
%"struct.std::__1::basic_string<char>::__long" = type { %struct.anon.4, i64, ptr }
%struct.anon.4 = type { i64 }

@.str = private unnamed_addr constant [115 x i8] c"generated/home/dtcxzyw/WorkSpace/Projects/compilers/llvm-opt-benchmark/bench/mitsuba3/mitsuba3/src/core/struct.cpp\00", align 1
@.str.2 = private unnamed_addr constant [5 x i8] c"int8\00", align 1
@.str.3 = private unnamed_addr constant [6 x i8] c"uint8\00", align 1
@.str.4 = private unnamed_addr constant [6 x i8] c"int16\00", align 1
@.str.5 = private unnamed_addr constant [7 x i8] c"uint16\00", align 1
@.str.6 = private unnamed_addr constant [6 x i8] c"int32\00", align 1
@.str.7 = private unnamed_addr constant [7 x i8] c"uint32\00", align 1
@.str.8 = private unnamed_addr constant [6 x i8] c"int64\00", align 1
@.str.9 = private unnamed_addr constant [7 x i8] c"uint64\00", align 1
@.str.10 = private unnamed_addr constant [8 x i8] c"float16\00", align 1
@.str.11 = private unnamed_addr constant [8 x i8] c"float32\00", align 1
@.str.12 = private unnamed_addr constant [8 x i8] c"float64\00", align 1
@.str.13 = private unnamed_addr constant [8 x i8] c"invalid\00", align 1
@_ZN7mitsuba7m_classE = external global ptr, align 8
@.str.14 = private unnamed_addr constant [40 x i8] c"Struct: operator<<: invalid field type!\00", align 1

; Function Attrs: noreturn nounwind uwtable
define linkonce_odr hidden void @__clang_call_terminate(ptr noundef %0) #11 comdat {
  %2 = call ptr @__cxa_begin_catch(ptr %0) #7
  call void @_ZSt9terminatev() #20
  unreachable
}

; Function Attrs: mustprogress nounwind uwtable
define linkonce_odr hidden noundef i64 @_ZNSt3__118__constexpr_strlenB8ne190000EPKc(ptr noundef %0) #1 comdat {
  %2 = alloca ptr, align 8
  store ptr %0, ptr %2, align 8
  %3 = load ptr, ptr %2, align 8
  %4 = call i64 @strlen(ptr noundef %3) #7
  ret i64 %4
}

; Function Attrs: mustprogress nounwind uwtable
define linkonce_odr hidden noundef i64 @_ZNSt3__111char_traitsIcE6lengthB8ne190000EPKc(ptr noundef %0) #1 comdat align 2 personality ptr @__gxx_personality_v0 {
  %2 = alloca ptr, align 8
  store ptr %0, ptr %2, align 8
  %3 = load ptr, ptr %2, align 8
  %4 = invoke noundef i64 @_ZNSt3__118__constexpr_strlenB8ne190000EPKc(ptr noundef %3)
          to label %5 unwind label %6

5:                                                ; preds = %1
  ret i64 %4

6:                                                ; preds = %1
  %7 = landingpad { ptr, i32 }
          catch ptr null
  %8 = extractvalue { ptr, i32 } %7, 0
  call void @__clang_call_terminate(ptr %8) #20
  unreachable
}

; Function Attrs: mustprogress uwtable
define linkonce_odr hidden noundef nonnull align 8 dereferenceable(8) ptr @_ZNSt3__1lsB8ne190000INS_11char_traitsIcEEEERNS_13basic_ostreamIcT_EES6_PKc(ptr noundef nonnull align 8 dereferenceable(8) %0, ptr noundef %1) #0 comdat {
  %3 = alloca ptr, align 8
  %4 = alloca ptr, align 8
  store ptr %0, ptr %3, align 8
  store ptr %1, ptr %4, align 8
  %5 = load ptr, ptr %3, align 8
  %6 = load ptr, ptr %4, align 8
  %7 = load ptr, ptr %4, align 8
  %8 = call noundef i64 @_ZNSt3__111char_traitsIcE6lengthB8ne190000EPKc(ptr noundef %7) #7
  %9 = call noundef nonnull align 8 dereferenceable(8) ptr @_ZNSt3__124__put_character_sequenceB8ne190000IcNS_11char_traitsIcEEEERNS_13basic_ostreamIT_T0_EES7_PKS4_m(ptr noundef nonnull align 8 dereferenceable(8) %5, ptr noundef %6, i64 noundef %8)
  ret ptr %9
}

; Function Attrs: mustprogress uwtable
define noundef nonnull align 8 dereferenceable(8) ptr @_ZN7mitsubalsERNSt3__113basic_ostreamIcNS0_11char_traitsIcEEEENS_6Struct4TypeE(ptr noundef nonnull align 8 dereferenceable(8) %0, i32 noundef %1) #0 personality ptr @__gxx_personality_v0 {
  %3 = alloca ptr, align 8
  %4 = alloca i32, align 4
  %5 = alloca %"class.std::__1::basic_string", align 8
  %6 = alloca ptr, align 8
  %7 = alloca i32, align 4
  store ptr %0, ptr %3, align 8
  store i32 %1, ptr %4, align 4
  %8 = load i32, ptr %4, align 4
  switch i32 %8, label %45 [
    i32 2, label %9
    i32 1, label %12
    i32 4, label %15
    i32 3, label %18
    i32 6, label %21
    i32 5, label %24
    i32 8, label %27
    i32 7, label %30
    i32 9, label %33
    i32 10, label %36
    i32 11, label %39
    i32 0, label %42
  ]

9:                                                ; preds = %2
  %10 = load ptr, ptr %3, align 8
  %11 = call noundef nonnull align 8 dereferenceable(8) ptr @_ZNSt3__1lsB8ne190000INS_11char_traitsIcEEEERNS_13basic_ostreamIcT_EES6_PKc(ptr noundef nonnull align 8 dereferenceable(8) %10, ptr noundef @.str.2)
  br label %54

12:                                               ; preds = %2
  %13 = load ptr, ptr %3, align 8
  %14 = call noundef nonnull align 8 dereferenceable(8) ptr @_ZNSt3__1lsB8ne190000INS_11char_traitsIcEEEERNS_13basic_ostreamIcT_EES6_PKc(ptr noundef nonnull align 8 dereferenceable(8) %13, ptr noundef @.str.3)
  br label %54

15:                                               ; preds = %2
  %16 = load ptr, ptr %3, align 8
  %17 = call noundef nonnull align 8 dereferenceable(8) ptr @_ZNSt3__1lsB8ne190000INS_11char_traitsIcEEEERNS_13basic_ostreamIcT_EES6_PKc(ptr noundef nonnull align 8 dereferenceable(8) %16, ptr noundef @.str.4)
  br label %54

18:                                               ; preds = %2
  %19 = load ptr, ptr %3, align 8
  %20 = call noundef nonnull align 8 dereferenceable(8) ptr @_ZNSt3__1lsB8ne190000INS_11char_traitsIcEEEERNS_13basic_ostreamIcT_EES6_PKc(ptr noundef nonnull align 8 dereferenceable(8) %19, ptr noundef @.str.5)
  br label %54

21:                                               ; preds = %2
  %22 = load ptr, ptr %3, align 8
  %23 = call noundef nonnull align 8 dereferenceable(8) ptr @_ZNSt3__1lsB8ne190000INS_11char_traitsIcEEEERNS_13basic_ostreamIcT_EES6_PKc(ptr noundef nonnull align 8 dereferenceable(8) %22, ptr noundef @.str.6)
  br label %54

24:                                               ; preds = %2
  %25 = load ptr, ptr %3, align 8
  %26 = call noundef nonnull align 8 dereferenceable(8) ptr @_ZNSt3__1lsB8ne190000INS_11char_traitsIcEEEERNS_13basic_ostreamIcT_EES6_PKc(ptr noundef nonnull align 8 dereferenceable(8) %25, ptr noundef @.str.7)
  br label %54

27:                                               ; preds = %2
  %28 = load ptr, ptr %3, align 8
  %29 = call noundef nonnull align 8 dereferenceable(8) ptr @_ZNSt3__1lsB8ne190000INS_11char_traitsIcEEEERNS_13basic_ostreamIcT_EES6_PKc(ptr noundef nonnull align 8 dereferenceable(8) %28, ptr noundef @.str.8)
  br label %54

30:                                               ; preds = %2
  %31 = load ptr, ptr %3, align 8
  %32 = call noundef nonnull align 8 dereferenceable(8) ptr @_ZNSt3__1lsB8ne190000INS_11char_traitsIcEEEERNS_13basic_ostreamIcT_EES6_PKc(ptr noundef nonnull align 8 dereferenceable(8) %31, ptr noundef @.str.9)
  br label %54

33:                                               ; preds = %2
  %34 = load ptr, ptr %3, align 8
  %35 = call noundef nonnull align 8 dereferenceable(8) ptr @_ZNSt3__1lsB8ne190000INS_11char_traitsIcEEEERNS_13basic_ostreamIcT_EES6_PKc(ptr noundef nonnull align 8 dereferenceable(8) %34, ptr noundef @.str.10)
  br label %54

36:                                               ; preds = %2
  %37 = load ptr, ptr %3, align 8
  %38 = call noundef nonnull align 8 dereferenceable(8) ptr @_ZNSt3__1lsB8ne190000INS_11char_traitsIcEEEERNS_13basic_ostreamIcT_EES6_PKc(ptr noundef nonnull align 8 dereferenceable(8) %37, ptr noundef @.str.11)
  br label %54

39:                                               ; preds = %2
  %40 = load ptr, ptr %3, align 8
  %41 = call noundef nonnull align 8 dereferenceable(8) ptr @_ZNSt3__1lsB8ne190000INS_11char_traitsIcEEEERNS_13basic_ostreamIcT_EES6_PKc(ptr noundef nonnull align 8 dereferenceable(8) %40, ptr noundef @.str.12)
  br label %54

42:                                               ; preds = %2
  %43 = load ptr, ptr %3, align 8
  %44 = call noundef nonnull align 8 dereferenceable(8) ptr @_ZNSt3__1lsB8ne190000INS_11char_traitsIcEEEERNS_13basic_ostreamIcT_EES6_PKc(ptr noundef nonnull align 8 dereferenceable(8) %43, ptr noundef @.str.13)
  br label %54

45:                                               ; preds = %2
  br label %46

46:                                               ; preds = %45
  %47 = load ptr, ptr @_ZN7mitsuba7m_classE, align 8
  call void @_ZN10tinyformat6formatIJEEENSt3__112basic_stringIcNS1_11char_traitsIcEENS1_9allocatorIcEEEEPKcDpRKT_(ptr dead_on_unwind writable sret(%"class.std::__1::basic_string") align 8 %5, ptr noundef @.str.14)
  invoke void @_ZN7mitsuba6detail5ThrowENS_8LogLevelEPKNS_5ClassEPKciRKNSt3__112basic_stringIcNS7_11char_traitsIcEENS7_9allocatorIcEEEE(i32 noundef 400, ptr noundef %47, ptr noundef @.str, i32 noundef 1120, ptr noundef nonnull align 8 dereferenceable(24) %5) #21
          to label %48 unwind label %49

48:                                               ; preds = %46
  unreachable

49:                                               ; preds = %46
  %50 = landingpad { ptr, i32 }
          cleanup
  %51 = extractvalue { ptr, i32 } %50, 0
  store ptr %51, ptr %6, align 8
  %52 = extractvalue { ptr, i32 } %50, 1
  store i32 %52, ptr %7, align 4
  call void @_ZNSt3__112basic_stringIcNS_11char_traitsIcEENS_9allocatorIcEEED1Ev(ptr noundef nonnull align 8 dereferenceable(24) %5) #7
  br label %56

53:                                               ; No predecessors!
  br label %54

54:                                               ; preds = %53, %42, %39, %36, %33, %30, %27, %24, %21, %18, %15, %12, %9
  %55 = load ptr, ptr %3, align 8
  ret ptr %55

56:                                               ; preds = %49
  %57 = load ptr, ptr %6, align 8
  %58 = load i32, ptr %7, align 4
  %59 = insertvalue { ptr, i32 } poison, ptr %57, 0
  %60 = insertvalue { ptr, i32 } %59, i32 %58, 1
  resume { ptr, i32 } %60
}